; Function Attrs: mustprogress nofree norecurse nosync nounwind willreturn memory(read, argmem: readwrite, inaccessiblemem: none) uwtable
define noundef zeroext i1 @_ZN5draco14RAnsBitDecoder13DecodeNextBitEv(ptr noundef nonnull align 8 captures(none) dereferenceable(17) %0) local_unnamed_addr #7 align 2 {
  %2 = getelementptr inbounds nuw i8, ptr %0, i64 16
  %3 = load i8, ptr %2, align 8, !tbaa !23
  %4 = getelementptr inbounds nuw i8, ptr %0, i64 12
  %5 = load i32, ptr %4, align 4, !tbaa !22
  %6 = icmp ult i32 %5, 4096
  br i1 %6, label %7, label %_ZN5dracoL14rabs_desc_readEPNS_10AnsDecoderEh.exit

7:                                                ; preds = %1
  %8 = getelementptr inbounds nuw i8, ptr %0, i64 8
  %9 = load i32, ptr %8, align 8, !tbaa !21
  %10 = icmp sgt i32 %9, 0
  br i1 %10, label %11, label %_ZN5dracoL14rabs_desc_readEPNS_10AnsDecoderEh.exit

11:                                               ; preds = %7
  %12 = shl nuw nsw i32 %5, 8
  %13 = load ptr, ptr %0, align 8, !tbaa !18
  %14 = add nsw i32 %9, -1
  store i32 %14, ptr %8, align 8, !tbaa !21
  %15 = zext nneg i32 %14 to i64
  %16 = getelementptr inbounds nuw i8, ptr %13, i64 %15
  %17 = load i8, ptr %16, align 1, !tbaa !20
  %18 = zext i8 %17 to i32
  %19 = or disjoint i32 %12, %18
  br label %_ZN5dracoL14rabs_desc_readEPNS_10AnsDecoderEh.exit

_ZN5dracoL14rabs_desc_readEPNS_10AnsDecoderEh.exit: ; preds = %1, %7, %11
  %20 = phi i32 [ %19, %11 ], [ %5, %7 ], [ %5, %1 ]
  %21 = sub i8 0, %3
  %22 = lshr i32 %20, 8
  %23 = and i32 %20, 255
  %24 = zext i8 %21 to i32
  %25 = mul nuw i32 %22, %24
  %26 = icmp samesign ult i32 %23, %24
  %27 = add nuw i32 %25, %24
  %28 = sub i32 %20, %27
  %29 = add nuw i32 %25, %23
  %storemerge.i = select i1 %26, i32 %29, i32 %28
  store i32 %storemerge.i, ptr %4, align 4, !tbaa !22
  ret i1 %26
}